; Function Attrs: mustprogress nofree norecurse nosync nounwind willreturn memory(argmem: read) uwtable
define dso_local noundef zeroext i1 @_ZNK4Luau7CodeGen3X6416IrCallWrapperX6421interferesWithOperandERKNS1_10OperandX64ENS1_11RegisterX64E(ptr noundef nonnull readnone align 8 captures(none) dereferenceable(240) %0, ptr noundef nonnull readonly align 4 captures(none) dereferenceable(8) %1, i8 %2) local_unnamed_addr #8 align 2 {
  %4 = getelementptr inbounds nuw i8, ptr %1, i64 2
  %.sroa.03.0.copyload = load i8, ptr %4, align 2, !tbaa !26
  %5 = and i8 %.sroa.03.0.copyload, 7
  %6 = icmp ne i8 %5, 5
  %7 = and i8 %2, 7
  %8 = icmp eq i8 %7, 5
  %9 = xor i1 %8, %6
  %.unshifted.i = xor i8 %.sroa.03.0.copyload, %2
  %10 = icmp ult i8 %.unshifted.i, 8
  %or.cond = and i1 %10, %9
  br i1 %or.cond, label %_ZN4Luau7CodeGen3X64L22sameUnderlyingRegisterENS1_11RegisterX64ES2_.exit8, label %_ZN4Luau7CodeGen3X64L22sameUnderlyingRegisterENS1_11RegisterX64ES2_.exit.thread

_ZN4Luau7CodeGen3X64L22sameUnderlyingRegisterENS1_11RegisterX64ES2_.exit.thread: ; preds = %3
  %11 = getelementptr inbounds nuw i8, ptr %1, i64 1
  %.sroa.01.0.copyload = load i8, ptr %11, align 1, !tbaa !26
  %12 = and i8 %.sroa.01.0.copyload, 7
  %13 = icmp ne i8 %12, 5
  %14 = xor i1 %8, %13
  br i1 %14, label %15, label %_ZN4Luau7CodeGen3X64L22sameUnderlyingRegisterENS1_11RegisterX64ES2_.exit8

15:                                               ; preds = %_ZN4Luau7CodeGen3X64L22sameUnderlyingRegisterENS1_11RegisterX64ES2_.exit.thread
  %.unshifted.i7 = xor i8 %.sroa.01.0.copyload, %2
  %16 = icmp ult i8 %.unshifted.i7, 8
  br label %_ZN4Luau7CodeGen3X64L22sameUnderlyingRegisterENS1_11RegisterX64ES2_.exit8

_ZN4Luau7CodeGen3X64L22sameUnderlyingRegisterENS1_11RegisterX64ES2_.exit8: ; preds = %3, %15, %_ZN4Luau7CodeGen3X64L22sameUnderlyingRegisterENS1_11RegisterX64ES2_.exit.thread
  %17 = phi i1 [ false, %_ZN4Luau7CodeGen3X64L22sameUnderlyingRegisterENS1_11RegisterX64ES2_.exit.thread ], [ %16, %15 ], [ true, %3 ]
  ret i1 %17
}